target datalayout = "e-m:e-p270:32:32-p271:32:32-p272:64:64-i64:64-i128:128-f80:128-n8:16:32:64-S128"
target triple = "x86_64-pc-linux-gnu"

; Function Attrs: inlinehint nounwind uwtable
define internal i32 @toLitCond(i32 noundef %0, i32 noundef %1) #2 {
  %3 = alloca i32, align 4
  %4 = alloca i32, align 4
  store i32 %0, ptr %3, align 4, !tbaa !17
  store i32 %1, ptr %4, align 4, !tbaa !17
  %5 = load i32, ptr %3, align 4, !tbaa !17
  %6 = load i32, ptr %3, align 4, !tbaa !17
  %7 = add nsw i32 %5, %6
  %8 = load i32, ptr %4, align 4, !tbaa !17
  %9 = icmp ne i32 %8, 0
  %10 = zext i1 %9 to i32
  %11 = add nsw i32 %7, %10
  ret i32 %11
}

; Function Attrs: nounwind uwtable
define i32 @Res_SatAddEqual(ptr noundef %0, i32 noundef %1, i32 noundef %2, i32 noundef %3) #0 {
  %5 = alloca i32, align 4
  %6 = alloca ptr, align 8
  %7 = alloca i32, align 4
  %8 = alloca i32, align 4
  %9 = alloca i32, align 4
  %10 = alloca [2 x i32], align 4
  %11 = alloca i32, align 4
  store ptr %0, ptr %6, align 8, !tbaa !23
  store i32 %1, ptr %7, align 4, !tbaa !17
  store i32 %2, ptr %8, align 4, !tbaa !17
  store i32 %3, ptr %9, align 4, !tbaa !17
  call void @llvm.lifetime.start.p0(i64 8, ptr %10) #7
  %12 = load i32, ptr %7, align 4, !tbaa !17
  %13 = call i32 @toLitCond(i32 noundef %12, i32 noundef 0)
  %14 = getelementptr inbounds [2 x i32], ptr %10, i64 0, i64 0
  store i32 %13, ptr %14, align 4, !tbaa !17
  %15 = load i32, ptr %8, align 4, !tbaa !17
  %16 = load i32, ptr %9, align 4, !tbaa !17
  %17 = icmp ne i32 %16, 0
  %18 = xor i1 %17, true
  %19 = zext i1 %18 to i32
  %20 = call i32 @toLitCond(i32 noundef %15, i32 noundef %19)
  %21 = getelementptr inbounds [2 x i32], ptr %10, i64 0, i64 1
  store i32 %20, ptr %21, align 4, !tbaa !17
  %22 = load ptr, ptr %6, align 8, !tbaa !23
  %23 = getelementptr inbounds [2 x i32], ptr %10, i64 0, i64 0
  %24 = getelementptr inbounds [2 x i32], ptr %10, i64 0, i64 0
  %25 = getelementptr inbounds i32, ptr %24, i64 2
  %26 = call i32 @sat_solver_addclause(ptr noundef %22, ptr noundef %23, ptr noundef %25)
  %27 = icmp ne i32 %26, 0
  br i1 %27, label %29, label %28

28:                                               ; preds = %4
  store i32 0, ptr %5, align 4
  store i32 1, ptr %11, align 4
  br label %45

29:                                               ; preds = %4
  %30 = load i32, ptr %7, align 4, !tbaa !17
  %31 = call i32 @toLitCond(i32 noundef %30, i32 noundef 1)
  %32 = getelementptr inbounds [2 x i32], ptr %10, i64 0, i64 0
  store i32 %31, ptr %32, align 4, !tbaa !17
  %33 = load i32, ptr %8, align 4, !tbaa !17
  %34 = load i32, ptr %9, align 4, !tbaa !17
  %35 = call i32 @toLitCond(i32 noundef %33, i32 noundef %34)
  %36 = getelementptr inbounds [2 x i32], ptr %10, i64 0, i64 1
  store i32 %35, ptr %36, align 4, !tbaa !17
  %37 = load ptr, ptr %6, align 8, !tbaa !23
  %38 = getelementptr inbounds [2 x i32], ptr %10, i64 0, i64 0
  %39 = getelementptr inbounds [2 x i32], ptr %10, i64 0, i64 0
  %40 = getelementptr inbounds i32, ptr %39, i64 2
  %41 = call i32 @sat_solver_addclause(ptr noundef %37, ptr noundef %38, ptr noundef %40)
  %42 = icmp ne i32 %41, 0
  br i1 %42, label %44, label %43

43:                                               ; preds = %29
  store i32 0, ptr %5, align 4
  store i32 1, ptr %11, align 4
  br label %45

44:                                               ; preds = %29
  store i32 1, ptr %5, align 4
  store i32 1, ptr %11, align 4
  br label %45

45:                                               ; preds = %44, %43, %28
  call void @llvm.lifetime.end.p0(i64 8, ptr %10) #7
  %46 = load i32, ptr %5, align 4
  ret i32 %46
}