; Function Attrs: nounwind uwtable
define range(i32 0, 2) i32 @Res_SatAddEqual(ptr noundef %0, i32 noundef %1, i32 noundef %2, i32 noundef %3) local_unnamed_addr #0 {
  %5 = alloca [2 x i32], align 4
  call void @llvm.lifetime.start.p0(i64 8, ptr nonnull %5) #7
  %6 = shl nsw i32 %1, 1
  store i32 %6, ptr %5, align 4, !tbaa !33
  %.not = icmp eq i32 %3, 0
  %7 = shl nsw i32 %2, 1
  %8 = zext i1 %.not to i32
  %9 = or disjoint i32 %7, %8
  %10 = getelementptr inbounds nuw i8, ptr %5, i64 4
  store i32 %9, ptr %10, align 4, !tbaa !33
  %11 = getelementptr inbounds nuw i8, ptr %5, i64 8
  %12 = call i32 @sat_solver_addclause(ptr noundef %0, ptr noundef nonnull %5, ptr noundef nonnull %11) #7
  %.not8 = icmp eq i32 %12, 0
  br i1 %.not8, label %19, label %13

13:                                               ; preds = %4
  %14 = or disjoint i32 %6, 1
  store i32 %14, ptr %5, align 4, !tbaa !33
  %15 = icmp ne i32 %3, 0
  %16 = zext i1 %15 to i32
  %17 = or disjoint i32 %7, %16
  store i32 %17, ptr %10, align 4, !tbaa !33
  %18 = call i32 @sat_solver_addclause(ptr noundef %0, ptr noundef nonnull %5, ptr noundef nonnull %11) #7
  %.not9 = icmp ne i32 %18, 0
  %. = zext i1 %.not9 to i32
  br label %19

19:                                               ; preds = %13, %4
  %.0 = phi i32 [ 0, %4 ], [ %., %13 ]
  call void @llvm.lifetime.end.p0(i64 8, ptr nonnull %5) #7
  ret i32 %.0
}